; Function Attrs: mustprogress nofree norecurse nosync nounwind willreturn memory(argmem: readwrite) uwtable
define dso_local noundef zeroext i1 @_ZN5clang8DeclSpec13SetFriendSpecENS_14SourceLocationERPKcRj(ptr nocapture noundef nonnull align 8 dereferenceable(360) %0, i32 %1, ptr nocapture noundef nonnull writeonly align 8 dereferenceable(8) %2, ptr nocapture noundef nonnull writeonly align 4 dereferenceable(4) %3) local_unnamed_addr #0 align 2 {
  %5 = getelementptr inbounds nuw i8, ptr %0, i64 328
  %6 = load i32, ptr %5, align 8
  %7 = icmp ne i32 %6, 0
  br i1 %7, label %8, label %9

8:                                                ; preds = %4
  store ptr @.str.101, ptr %2, align 8
  store i32 141, ptr %3, align 4
  br label %19

9:                                                ; preds = %4
  %10 = load i64, ptr %0, align 8
  %11 = getelementptr inbounds nuw i8, ptr %0, i64 24
  %.0.copyload.i.i.i.i.i.i.i = load i64, ptr %11, align 8
  %12 = icmp eq i64 %.0.copyload.i.i.i.i.i.i.i, 0
  %13 = and i64 %10, 34293153759
  %14 = icmp eq i64 %13, 0
  %15 = select i1 %14, i1 %12, i1 false
  %16 = select i1 %15, i64 34359738368, i64 0
  %17 = and i64 %10, -34359738369
  %18 = or disjoint i64 %16, %17
  store i64 %18, ptr %0, align 8
  store i32 %1, ptr %5, align 8
  br label %19

19:                                               ; preds = %9, %8
  ret i1 %7
}